(lp0
(lp1
S'CS_NOP_CC'
p2
aS'CS_RESET_CC'
p3
aS'CS_ONESHOT_CC'
p4
aS'CS_CANCEL_ONESHOT_CC'
p5
aS'CS_ENABLE_ALL_CS_CC'
p6
aS'CS_ENABLE_CFECORE_CC'
p7
aS'CS_DISABLE_CFECORE_CC'
p8
aa(lp9
S'0'
p10
aS'1'
p11
aS'2'
p12
aS'3'
p13
aS'4'
p14
aS'5'
p15
aS'6'
p16
aag1
a.